; Function Attrs: nounwind uwtable
define ptr @l___private_Lean_Elab_ParseImportsFast_0__Lean_toJsonPrintImportsResult____x40_Lean_Elab_ParseImportsFast___hyg_1680_(ptr noundef %0) #0 {
  %2 = getelementptr i8, ptr %0, i64 8
  %.val.i = load i64, ptr %2, align 8, !tbaa !16
  %3 = tail call ptr @l_Array_mapMUnsafe_map___at___private_Lean_Elab_ParseImportsFast_0__Lean_toJsonPrintImportsResult____x40_Lean_Elab_ParseImportsFast___hyg_1680____spec__2(i64 noundef %.val.i, i64 noundef 0, ptr noundef %0)
  tail call void @lean_inc_heartbeat() #6
  %4 = tail call noalias ptr @mi_malloc_small(i64 noundef 16) #6
  %5 = icmp eq ptr %4, null
  br i1 %5, label %6, label %l_Array_toJson___at___private_Lean_Elab_ParseImportsFast_0__Lean_toJsonPrintImportsResult____x40_Lean_Elab_ParseImportsFast___hyg_1680____spec__1.exit

6:                                                ; preds = %1
  tail call void @lean_internal_panic_out_of_memory() #7
  unreachable

l_Array_toJson___at___private_Lean_Elab_ParseImportsFast_0__Lean_toJsonPrintImportsResult____x40_Lean_Elab_ParseImportsFast___hyg_1680____spec__1.exit: ; preds = %1
  %7 = getelementptr inbounds nuw i8, ptr %4, i64 4
  store i32 1, ptr %4, align 4, !tbaa !4
  store i32 67174416, ptr %7, align 4
  %8 = getelementptr inbounds nuw i8, ptr %4, i64 8
  store ptr %3, ptr %8, align 8, !tbaa !10
  %9 = load ptr, ptr @l___private_Lean_Elab_ParseImportsFast_0__Lean_toJsonParseImportsResult____x40_Lean_Elab_ParseImportsFast___hyg_1467____closed__1, align 8, !tbaa !10
  tail call void @lean_inc_heartbeat() #6
  %10 = tail call noalias ptr @mi_malloc_small(i64 noundef 24) #6
  %11 = icmp eq ptr %10, null
  br i1 %11, label %12, label %lean_alloc_ctor.exit

12:                                               ; preds = %l_Array_toJson___at___private_Lean_Elab_ParseImportsFast_0__Lean_toJsonPrintImportsResult____x40_Lean_Elab_ParseImportsFast___hyg_1680____spec__1.exit
  tail call void @lean_internal_panic_out_of_memory() #7
  unreachable

lean_alloc_ctor.exit:                             ; preds = %l_Array_toJson___at___private_Lean_Elab_ParseImportsFast_0__Lean_toJsonPrintImportsResult____x40_Lean_Elab_ParseImportsFast___hyg_1680____spec__1.exit
  %13 = getelementptr inbounds nuw i8, ptr %10, i64 4
  store i32 1, ptr %10, align 4, !tbaa !4
  store i32 131096, ptr %13, align 4
  %14 = getelementptr inbounds nuw i8, ptr %10, i64 8
  store ptr %9, ptr %14, align 8, !tbaa !10
  %15 = getelementptr inbounds nuw i8, ptr %10, i64 16
  store ptr %4, ptr %15, align 8, !tbaa !10
  tail call void @lean_inc_heartbeat() #6
  %16 = tail call noalias ptr @mi_malloc_small(i64 noundef 24) #6
  %17 = icmp eq ptr %16, null
  br i1 %17, label %18, label %lean_alloc_ctor.exit17

18:                                               ; preds = %lean_alloc_ctor.exit
  tail call void @lean_internal_panic_out_of_memory() #7
  unreachable

lean_alloc_ctor.exit17:                           ; preds = %lean_alloc_ctor.exit
  %19 = getelementptr inbounds nuw i8, ptr %16, i64 4
  store i32 1, ptr %16, align 4, !tbaa !4
  store i32 16908312, ptr %19, align 4
  %20 = getelementptr inbounds nuw i8, ptr %16, i64 8
  store ptr %10, ptr %20, align 8, !tbaa !10
  %21 = getelementptr inbounds nuw i8, ptr %16, i64 16
  store ptr inttoptr (i64 1 to ptr), ptr %21, align 8, !tbaa !10
  tail call void @lean_inc_heartbeat() #6
  %22 = tail call noalias ptr @mi_malloc_small(i64 noundef 24) #6
  %23 = icmp eq ptr %22, null
  br i1 %23, label %24, label %lean_alloc_ctor.exit18

24:                                               ; preds = %lean_alloc_ctor.exit17
  tail call void @lean_internal_panic_out_of_memory() #7
  unreachable

lean_alloc_ctor.exit18:                           ; preds = %lean_alloc_ctor.exit17
  %25 = getelementptr inbounds nuw i8, ptr %22, i64 4
  store i32 1, ptr %22, align 4, !tbaa !4
  store i32 16908312, ptr %25, align 4
  %26 = getelementptr inbounds nuw i8, ptr %22, i64 8
  store ptr %16, ptr %26, align 8, !tbaa !10
  %27 = getelementptr inbounds nuw i8, ptr %22, i64 16
  store ptr inttoptr (i64 1 to ptr), ptr %27, align 8, !tbaa !10
  %28 = load ptr, ptr @l___private_Lean_Elab_ParseImportsFast_0__Lean_toJsonImport____x40_Lean_Elab_ParseImportsFast___hyg_1380____closed__4, align 8, !tbaa !10
  %29 = tail call ptr @l_List_flatMapTR_go___at___private_Lean_Server_Rpc_Basic_0__Lean_Lsp_toJsonRpcRef____x40_Lean_Server_Rpc_Basic___hyg_173____spec__1(ptr noundef nonnull %22, ptr noundef %28) #6
  %30 = tail call ptr @l_Lean_Json_mkObj(ptr noundef %29) #6
  ret ptr %30
}